; ModuleID = 'source-C-CXX/46/2696.c'
source_filename = "source-C-CXX/46/2696.c"
target datalayout = "e-m:e-p270:32:32-p271:32:32-p272:64:64-i64:64-f80:128-n8:16:32:64-S128"
target triple = "x86_64-pc-linux-gnu"

@.str = private unnamed_addr constant [3 x i8] c"%d\00", align 1
@.str.1 = private unnamed_addr constant [4 x i8] c"%d \00", align 1

; Function Attrs: nofree nounwind sspstrong uwtable
define dso_local i32 @main() local_unnamed_addr #0 {
  %1 = alloca [100 x i32], align 16
  %2 = alloca [100 x i32], align 16
  %3 = alloca i32, align 4
  %4 = bitcast [100 x i32]* %1 to i8*
  call void @llvm.lifetime.start.p0i8(i64 400, i8* nonnull %4) #3
  %5 = bitcast [100 x i32]* %2 to i8*
  call void @llvm.lifetime.start.p0i8(i64 400, i8* nonnull %5) #3
  %6 = bitcast i32* %3 to i8*
  call void @llvm.lifetime.start.p0i8(i64 4, i8* nonnull %6) #3
  %7 = call i32 (i8*, ...) @__isoc99_scanf(i8* getelementptr inbounds ([3 x i8], [3 x i8]* @.str, i64 0, i64 0), i32* nonnull %3)
  %8 = load i32, i32* %3, align 4, !tbaa !5
  %9 = icmp slt i32 %8, 0
  br i1 %9, label %43, label %12

10:                                               ; preds = %12
  %11 = icmp slt i32 %17, 1
  br i1 %11, label %43, label %25

12:                                               ; preds = %0, %12
  %13 = phi i64 [ %22, %12 ], [ 0, %0 ]
  %14 = getelementptr inbounds [100 x i32], [100 x i32]* %1, i64 0, i64 %13
  %15 = call i32 (i8*, ...) @__isoc99_scanf(i8* getelementptr inbounds ([3 x i8], [3 x i8]* @.str, i64 0, i64 0), i32* nonnull %14)
  %16 = load i32, i32* %14, align 4, !tbaa !5
  %17 = load i32, i32* %3, align 4, !tbaa !5
  %18 = trunc i64 %13 to i32
  %19 = sub nsw i32 %17, %18
  %20 = sext i32 %19 to i64
  %21 = getelementptr inbounds [100 x i32], [100 x i32]* %2, i64 0, i64 %20
  store i32 %16, i32* %21, align 4, !tbaa !5
  %22 = add nuw i64 %13, 1
  %23 = sext i32 %17 to i64
  %24 = icmp slt i64 %13, %23
  br i1 %24, label %12, label %10, !llvm.loop !9

25:                                               ; preds = %10, %35
  %26 = phi i64 [ %39, %35 ], [ 1, %10 ]
  %27 = phi i32 [ %40, %35 ], [ %17, %10 ]
  %28 = zext i32 %27 to i64
  %29 = icmp eq i64 %26, %28
  br i1 %29, label %30, label %35

30:                                               ; preds = %25
  %31 = and i64 %26, 4294967295
  %32 = getelementptr inbounds [100 x i32], [100 x i32]* %2, i64 0, i64 %31
  %33 = load i32, i32* %32, align 4, !tbaa !5
  %34 = call i32 (i8*, ...) @printf(i8* nonnull dereferenceable(1) getelementptr inbounds ([3 x i8], [3 x i8]* @.str, i64 0, i64 0), i32 %33)
  br label %43

35:                                               ; preds = %25
  %36 = getelementptr inbounds [100 x i32], [100 x i32]* %2, i64 0, i64 %26
  %37 = load i32, i32* %36, align 4, !tbaa !5
  %38 = call i32 (i8*, ...) @printf(i8* nonnull dereferenceable(1) getelementptr inbounds ([4 x i8], [4 x i8]* @.str.1, i64 0, i64 0), i32 %37)
  %39 = add nuw nsw i64 %26, 1
  %40 = load i32, i32* %3, align 4, !tbaa !5
  %41 = sext i32 %40 to i64
  %42 = icmp slt i64 %26, %41
  br i1 %42, label %25, label %43, !llvm.loop !11

43:                                               ; preds = %35, %0, %10, %30
  call void @llvm.lifetime.end.p0i8(i64 4, i8* nonnull %6) #3
  call void @llvm.lifetime.end.p0i8(i64 400, i8* nonnull %5) #3
  call void @llvm.lifetime.end.p0i8(i64 400, i8* nonnull %4) #3
  ret i32 0
}

; Function Attrs: argmemonly mustprogress nofree nosync nounwind willreturn
declare void @llvm.lifetime.start.p0i8(i64 immarg, i8* nocapture) #1

; Function Attrs: nofree nounwind
declare noundef i32 @__isoc99_scanf(i8* nocapture noundef readonly, ...) local_unnamed_addr #2

; Function Attrs: nofree nounwind
declare noundef i32 @printf(i8* nocapture noundef readonly, ...) local_unnamed_addr #2

; Function Attrs: argmemonly mustprogress nofree nosync nounwind willreturn
declare void @llvm.lifetime.end.p0i8(i64 immarg, i8* nocapture) #1


!llvm.module.flags = !{!0, !1, !2, !3}
!llvm.ident = !{!4}

!0 = !{i32 1, !"wchar_size", i32 4}
!1 = !{i32 7, !"PIC Level", i32 2}
!2 = !{i32 7, !"PIE Level", i32 2}
!3 = !{i32 7, !"uwtable", i32 1}
!4 = !{!"clang version 13.0.0"}
!5 = !{!6, !6, i64 0}
!6 = !{!"int", !7, i64 0}
!7 = !{!"omnipotent char", !8, i64 0}
!8 = !{!"Simple C/C++ TBAA"}
!9 = distinct !{!9, !10}
!10 = !{!"llvm.loop.mustprogress"}
!11 = distinct !{!11, !10}
